target datalayout = "e-m:e-p270:32:32-p271:32:32-p272:64:64-i64:64-i128:128-f80:128-n8:16:32:64-S128"
target triple = "x86_64-pc-linux-gnu"

%struct.PlannerInfo = type { i32, ptr, ptr, i32, ptr, ptr, ptr, ptr, i32, ptr, ptr, ptr, ptr, ptr, ptr, ptr, ptr, i32, ptr, ptr, ptr, ptr, ptr, i8, ptr, ptr, ptr, ptr, ptr, i32, ptr, ptr, ptr, ptr, ptr, ptr, ptr, i32, ptr, ptr, ptr, i32, ptr, ptr, ptr, ptr, ptr, ptr, [8 x ptr], [8 x ptr], ptr, ptr, ptr, ptr, ptr, ptr, ptr, double, double, double, i32, i8, i8, i8, i8, i8, i8, i8, i32, ptr, ptr, i32, i8, i8, i32, ptr, ptr, ptr, ptr, ptr, ptr, i8, ptr }
%struct.List = type { i32, i32, i32, ptr, [0 x %union.ListCell] }
%union.ListCell = type { ptr }
%struct.ForEachState = type { ptr, i32 }
%struct.RelOptInfo = type { i32, i32, ptr, double, i8, i8, i8, ptr, ptr, ptr, ptr, ptr, ptr, ptr, ptr, ptr, ptr, i32, i32, i32, i16, i16, ptr, ptr, ptr, ptr, ptr, ptr, ptr, ptr, i32, double, double, ptr, ptr, ptr, i32, i32, i32, i32, i8, ptr, ptr, ptr, ptr, ptr, %struct.QualCost, i32, ptr, i8, i8, ptr, ptr, ptr, ptr, i32, ptr, i8, ptr, ptr, ptr, ptr, ptr, ptr }
%struct.QualCost = type { double, double }
%struct.Path = type { i32, i32, ptr, ptr, ptr, i8, i8, i32, double, i32, double, double, ptr }

@enable_incremental_sort = external global i8, align 1

; Function Attrs: inlinehint nounwind uwtable
define internal ptr @list_nth_cell(ptr noundef %0, i32 noundef %1) #2 {
  %3 = alloca ptr, align 8
  %4 = alloca i32, align 4
  store ptr %0, ptr %3, align 8
  store i32 %1, ptr %4, align 4
  %5 = load ptr, ptr %3, align 8
  %6 = getelementptr inbounds nuw %struct.List, ptr %5, i32 0, i32 3
  %7 = load ptr, ptr %6, align 8
  %8 = load i32, ptr %4, align 4
  %9 = sext i32 %8 to i64
  %10 = getelementptr inbounds %union.ListCell, ptr %7, i64 %9
  ret ptr %10
}

; Function Attrs: inlinehint nounwind uwtable
define internal i32 @list_length(ptr noundef %0) #2 {
  %2 = alloca ptr, align 8
  store ptr %0, ptr %2, align 8
  %3 = load ptr, ptr %2, align 8
  %4 = icmp ne ptr %3, null
  br i1 %4, label %5, label %9

5:                                                ; preds = %1
  %6 = load ptr, ptr %2, align 8
  %7 = getelementptr inbounds nuw %struct.List, ptr %6, i32 0, i32 1
  %8 = load i32, ptr %7, align 4
  br label %10

9:                                                ; preds = %1
  br label %10

10:                                               ; preds = %9, %5
  %11 = phi i32 [ %8, %5 ], [ 0, %9 ]
  ret i32 %11
}

; Function Attrs: nounwind uwtable
define internal void @gather_grouping_paths(ptr noundef %0, ptr noundef %1) #0 {
  %3 = alloca ptr, align 8
  %4 = alloca ptr, align 8
  %5 = alloca ptr, align 8
  %6 = alloca ptr, align 8
  %7 = alloca ptr, align 8
  %8 = alloca %struct.ForEachState, align 8
  %9 = alloca i32, align 4
  %10 = alloca ptr, align 8
  %11 = alloca i8, align 1
  %12 = alloca i32, align 4
  %13 = alloca double, align 8
  store ptr %0, ptr %3, align 8
  store ptr %1, ptr %4, align 8
  call void @llvm.lifetime.start.p0(i64 8, ptr %5) #8
  call void @llvm.lifetime.start.p0(i64 8, ptr %6) #8
  call void @llvm.lifetime.start.p0(i64 8, ptr %7) #8
  %14 = load ptr, ptr %3, align 8
  %15 = getelementptr inbounds nuw %struct.PlannerInfo, ptr %14, i32 0, i32 40
  %16 = load ptr, ptr %15, align 8
  %17 = call i32 @list_length(ptr noundef %16)
  %18 = load ptr, ptr %3, align 8
  %19 = getelementptr inbounds nuw %struct.PlannerInfo, ptr %18, i32 0, i32 41
  %20 = load i32, ptr %19, align 8
  %21 = icmp sgt i32 %17, %20
  br i1 %21, label %22, label %30

22:                                               ; preds = %2
  %23 = load ptr, ptr %3, align 8
  %24 = getelementptr inbounds nuw %struct.PlannerInfo, ptr %23, i32 0, i32 40
  %25 = load ptr, ptr %24, align 8
  %26 = load ptr, ptr %3, align 8
  %27 = getelementptr inbounds nuw %struct.PlannerInfo, ptr %26, i32 0, i32 41
  %28 = load i32, ptr %27, align 8
  %29 = call ptr @list_copy_head(ptr noundef %25, i32 noundef %28)
  store ptr %29, ptr %7, align 8
  br label %34

30:                                               ; preds = %2
  %31 = load ptr, ptr %3, align 8
  %32 = getelementptr inbounds nuw %struct.PlannerInfo, ptr %31, i32 0, i32 40
  %33 = load ptr, ptr %32, align 8
  store ptr %33, ptr %7, align 8
  br label %34

34:                                               ; preds = %30, %22
  %35 = load ptr, ptr %3, align 8
  %36 = load ptr, ptr %4, align 8
  call void @generate_useful_gather_paths(ptr noundef %35, ptr noundef %36, i1 noundef zeroext true)
  %37 = load ptr, ptr %4, align 8
  %38 = getelementptr inbounds nuw %struct.RelOptInfo, ptr %37, i32 0, i32 10
  %39 = load ptr, ptr %38, align 8
  %40 = call ptr @list_nth_cell(ptr noundef %39, i32 noundef 0)
  %41 = load ptr, ptr %40, align 8
  store ptr %41, ptr %6, align 8
  call void @llvm.lifetime.start.p0(i64 16, ptr %8) #8
  %42 = getelementptr inbounds nuw %struct.ForEachState, ptr %8, i32 0, i32 0
  %43 = load ptr, ptr %4, align 8
  %44 = getelementptr inbounds nuw %struct.RelOptInfo, ptr %43, i32 0, i32 10
  %45 = load ptr, ptr %44, align 8
  store ptr %45, ptr %42, align 8
  %46 = getelementptr inbounds nuw %struct.ForEachState, ptr %8, i32 0, i32 1
  store i32 0, ptr %46, align 8
  %47 = getelementptr i8, ptr %8, i64 12
  call void @llvm.memset.p0.i64(ptr align 4 %47, i8 0, i64 4, i1 false)
  br label %48

48:                                               ; preds = %132, %34
  %49 = getelementptr inbounds nuw %struct.ForEachState, ptr %8, i32 0, i32 0
  %50 = load ptr, ptr %49, align 8
  %51 = icmp ne ptr %50, null
  br i1 %51, label %52, label %69

52:                                               ; preds = %48
  %53 = getelementptr inbounds nuw %struct.ForEachState, ptr %8, i32 0, i32 1
  %54 = load i32, ptr %53, align 8
  %55 = getelementptr inbounds nuw %struct.ForEachState, ptr %8, i32 0, i32 0
  %56 = load ptr, ptr %55, align 8
  %57 = getelementptr inbounds nuw %struct.List, ptr %56, i32 0, i32 1
  %58 = load i32, ptr %57, align 4
  %59 = icmp slt i32 %54, %58
  br i1 %59, label %60, label %69

60:                                               ; preds = %52
  %61 = getelementptr inbounds nuw %struct.ForEachState, ptr %8, i32 0, i32 0
  %62 = load ptr, ptr %61, align 8
  %63 = getelementptr inbounds nuw %struct.List, ptr %62, i32 0, i32 3
  %64 = load ptr, ptr %63, align 8
  %65 = getelementptr inbounds nuw %struct.ForEachState, ptr %8, i32 0, i32 1
  %66 = load i32, ptr %65, align 8
  %67 = sext i32 %66 to i64
  %68 = getelementptr inbounds %union.ListCell, ptr %64, i64 %67
  store ptr %68, ptr %5, align 8
  br label %70

69:                                               ; preds = %52, %48
  store ptr null, ptr %5, align 8
  br label %70

70:                                               ; preds = %69, %60
  %71 = phi i32 [ 1, %60 ], [ 0, %69 ]
  %72 = icmp ne i32 %71, 0
  br i1 %72, label %74, label %73

73:                                               ; preds = %70
  store i32 2, ptr %9, align 4
  call void @llvm.lifetime.end.p0(i64 16, ptr %8) #8
  br label %136

74:                                               ; preds = %70
  call void @llvm.lifetime.start.p0(i64 8, ptr %10) #8
  %75 = load ptr, ptr %5, align 8
  %76 = load ptr, ptr %75, align 8
  store ptr %76, ptr %10, align 8
  call void @llvm.lifetime.start.p0(i64 1, ptr %11) #8
  call void @llvm.lifetime.start.p0(i64 4, ptr %12) #8
  call void @llvm.lifetime.start.p0(i64 8, ptr %13) #8
  %77 = load ptr, ptr %7, align 8
  %78 = load ptr, ptr %10, align 8
  %79 = getelementptr inbounds nuw %struct.Path, ptr %78, i32 0, i32 12
  %80 = load ptr, ptr %79, align 8
  %81 = call zeroext i1 @pathkeys_count_contained_in(ptr noundef %77, ptr noundef %80, ptr noundef %12)
  %82 = zext i1 %81 to i8
  store i8 %82, ptr %11, align 1
  %83 = load i8, ptr %11, align 1, !range !4, !noundef !5
  %84 = trunc i8 %83 to i1
  br i1 %84, label %85, label %86

85:                                               ; preds = %74
  store i32 4, ptr %9, align 4
  br label %129

86:                                               ; preds = %74
  %87 = load ptr, ptr %10, align 8
  %88 = load ptr, ptr %6, align 8
  %89 = icmp ne ptr %87, %88
  br i1 %89, label %90, label %97

90:                                               ; preds = %86
  %91 = load i32, ptr %12, align 4
  %92 = icmp eq i32 %91, 0
  br i1 %92, label %96, label %93

93:                                               ; preds = %90
  %94 = load i8, ptr @enable_incremental_sort, align 1, !range !4, !noundef !5
  %95 = trunc i8 %94 to i1
  br i1 %95, label %97, label %96

96:                                               ; preds = %93, %90
  store i32 4, ptr %9, align 4
  br label %129

97:                                               ; preds = %93, %86
  %98 = load i32, ptr %12, align 4
  %99 = icmp eq i32 %98, 0
  br i1 %99, label %103, label %100

100:                                              ; preds = %97
  %101 = load i8, ptr @enable_incremental_sort, align 1, !range !4, !noundef !5
  %102 = trunc i8 %101 to i1
  br i1 %102, label %109, label %103

103:                                              ; preds = %100, %97
  %104 = load ptr, ptr %3, align 8
  %105 = load ptr, ptr %4, align 8
  %106 = load ptr, ptr %10, align 8
  %107 = load ptr, ptr %7, align 8
  %108 = call ptr @create_sort_path(ptr noundef %104, ptr noundef %105, ptr noundef %106, ptr noundef %107, double noundef -1.000000e+00)
  store ptr %108, ptr %10, align 8
  br label %116

109:                                              ; preds = %100
  %110 = load ptr, ptr %3, align 8
  %111 = load ptr, ptr %4, align 8
  %112 = load ptr, ptr %10, align 8
  %113 = load ptr, ptr %7, align 8
  %114 = load i32, ptr %12, align 4
  %115 = call ptr @create_incremental_sort_path(ptr noundef %110, ptr noundef %111, ptr noundef %112, ptr noundef %113, i32 noundef %114, double noundef -1.000000e+00)
  store ptr %115, ptr %10, align 8
  br label %116

116:                                              ; preds = %109, %103
  %117 = load ptr, ptr %10, align 8
  %118 = call double @compute_gather_rows(ptr noundef %117)
  store double %118, ptr %13, align 8
  %119 = load ptr, ptr %3, align 8
  %120 = load ptr, ptr %4, align 8
  %121 = load ptr, ptr %10, align 8
  %122 = load ptr, ptr %4, align 8
  %123 = getelementptr inbounds nuw %struct.RelOptInfo, ptr %122, i32 0, i32 7
  %124 = load ptr, ptr %123, align 8
  %125 = load ptr, ptr %7, align 8
  %126 = call ptr @create_gather_merge_path(ptr noundef %119, ptr noundef %120, ptr noundef %121, ptr noundef %124, ptr noundef %125, ptr noundef null, ptr noundef %13)
  store ptr %126, ptr %10, align 8
  %127 = load ptr, ptr %4, align 8
  %128 = load ptr, ptr %10, align 8
  call void @add_path(ptr noundef %127, ptr noundef %128)
  store i32 0, ptr %9, align 4
  br label %129

129:                                              ; preds = %116, %96, %85
  call void @llvm.lifetime.end.p0(i64 8, ptr %13) #8
  call void @llvm.lifetime.end.p0(i64 4, ptr %12) #8
  call void @llvm.lifetime.end.p0(i64 1, ptr %11) #8
  call void @llvm.lifetime.end.p0(i64 8, ptr %10) #8
  %130 = load i32, ptr %9, align 4
  switch i32 %130, label %137 [
    i32 0, label %131
    i32 4, label %132
  ]

131:                                              ; preds = %129
  br label %132

132:                                              ; preds = %131, %129
  %133 = getelementptr inbounds nuw %struct.ForEachState, ptr %8, i32 0, i32 1
  %134 = load i32, ptr %133, align 8
  %135 = add i32 %134, 1
  store i32 %135, ptr %133, align 8
  br label %48, !llvm.loop !98

136:                                              ; preds = %73
  call void @llvm.lifetime.end.p0(i64 8, ptr %7) #8
  call void @llvm.lifetime.end.p0(i64 8, ptr %6) #8
  call void @llvm.lifetime.end.p0(i64 8, ptr %5) #8
  ret void

137:                                              ; preds = %129
  unreachable
}