; Function Attrs: nounwind uwtable
define internal fastcc void @gather_grouping_paths(ptr noundef %0, ptr noundef %1) unnamed_addr #0 {
  %3 = alloca i32, align 4
  %4 = alloca double, align 8
  %5 = getelementptr inbounds nuw i8, ptr %0, i64 320
  %6 = load ptr, ptr %5, align 8
  %.not.i = icmp eq ptr %6, null
  br i1 %.not.i, label %list_length.exit, label %7

7:                                                ; preds = %2
  %8 = getelementptr inbounds nuw i8, ptr %6, i64 4
  %9 = load i32, ptr %8, align 4
  br label %list_length.exit

list_length.exit:                                 ; preds = %2, %7
  %10 = phi i32 [ %9, %7 ], [ 0, %2 ]
  %11 = getelementptr inbounds nuw i8, ptr %0, i64 328
  %12 = load i32, ptr %11, align 8
  %13 = icmp sgt i32 %10, %12
  br i1 %13, label %14, label %16

14:                                               ; preds = %list_length.exit
  %15 = tail call ptr @list_copy_head(ptr noundef %6, i32 noundef %12) #12
  br label %16

16:                                               ; preds = %list_length.exit, %14
  %.035 = phi ptr [ %15, %14 ], [ %6, %list_length.exit ]
  tail call void @generate_useful_gather_paths(ptr noundef nonnull %0, ptr noundef %1, i1 noundef zeroext true) #12
  %17 = getelementptr inbounds nuw i8, ptr %1, i64 56
  %18 = load ptr, ptr %17, align 8
  %19 = getelementptr i8, ptr %18, i64 16
  %.val = load ptr, ptr %19, align 8
  %20 = load ptr, ptr %.val, align 8
  %21 = getelementptr inbounds nuw i8, ptr %18, i64 4
  %22 = load i32, ptr %21, align 4
  %23 = icmp sgt i32 %22, 0
  br i1 %23, label %.lr.ph, label %._crit_edge

.lr.ph:                                           ; preds = %16
  %24 = getelementptr inbounds nuw i8, ptr %1, i64 32
  br label %25

._crit_edge:                                      ; preds = %47, %16
  ret void

25:                                               ; preds = %.lr.ph, %47
  %indvars.iv = phi i64 [ 0, %.lr.ph ], [ %indvars.iv.next, %47 ]
  %26 = load ptr, ptr %19, align 8
  %27 = getelementptr inbounds nuw %union.ListCell, ptr %26, i64 %indvars.iv
  %28 = load ptr, ptr %27, align 8
  call void @llvm.lifetime.start.p0(i64 4, ptr nonnull %3) #12
  call void @llvm.lifetime.start.p0(i64 8, ptr nonnull %4) #12
  %29 = getelementptr inbounds nuw i8, ptr %28, i64 72
  %30 = load ptr, ptr %29, align 8
  %31 = call zeroext i1 @pathkeys_count_contained_in(ptr noundef %.035, ptr noundef %30, ptr noundef nonnull %3) #12
  br i1 %31, label %47, label %32

32:                                               ; preds = %25
  %.not40 = icmp eq ptr %28, %20
  %.pr = load i32, ptr %3, align 4
  %33 = icmp eq i32 %.pr, 0
  br i1 %.not40, label %38, label %34

34:                                               ; preds = %32
  br i1 %33, label %47, label %35

35:                                               ; preds = %34
  %36 = load i8, ptr @enable_incremental_sort, align 1, !range !4, !noundef !5
  %37 = trunc nuw i8 %36 to i1
  br i1 %37, label %.thread43.thread, label %47

38:                                               ; preds = %32
  br i1 %33, label %40, label %.thread43

.thread43:                                        ; preds = %38
  %.pre = load i8, ptr @enable_incremental_sort, align 1, !range !4
  %39 = trunc nuw i8 %.pre to i1
  br i1 %39, label %.thread43.thread, label %40

40:                                               ; preds = %.thread43, %38
  %41 = call ptr @create_sort_path(ptr noundef nonnull %0, ptr noundef %1, ptr noundef nonnull %28, ptr noundef %.035, double noundef -1.000000e+00) #12
  br label %43

.thread43.thread:                                 ; preds = %35, %.thread43
  %42 = call ptr @create_incremental_sort_path(ptr noundef nonnull %0, ptr noundef %1, ptr noundef nonnull %28, ptr noundef %.035, i32 noundef %.pr, double noundef -1.000000e+00) #12
  br label %43

43:                                               ; preds = %.thread43.thread, %40
  %.034 = phi ptr [ %41, %40 ], [ %42, %.thread43.thread ]
  %44 = call double @compute_gather_rows(ptr noundef %.034) #12
  store double %44, ptr %4, align 8
  %45 = load ptr, ptr %24, align 8
  %46 = call ptr @create_gather_merge_path(ptr noundef nonnull %0, ptr noundef %1, ptr noundef %.034, ptr noundef %45, ptr noundef %.035, ptr noundef null, ptr noundef nonnull %4) #12
  call void @add_path(ptr noundef %1, ptr noundef %46) #12
  br label %47

47:                                               ; preds = %34, %35, %25, %43
  call void @llvm.lifetime.end.p0(i64 8, ptr nonnull %4) #12
  call void @llvm.lifetime.end.p0(i64 4, ptr nonnull %3) #12
  %indvars.iv.next = add nuw nsw i64 %indvars.iv, 1
  %48 = load i32, ptr %21, align 4
  %49 = sext i32 %48 to i64
  %50 = icmp slt i64 %indvars.iv.next, %49
  br i1 %50, label %25, label %._crit_edge, !llvm.loop !41
}